target datalayout = "e-m:e-p270:32:32-p271:32:32-p272:64:64-i64:64-i128:128-f80:128-n8:16:32:64-S128"
target triple = "x86_64-pc-linux-gnu"

%struct.bio_st = type { ptr, ptr, ptr, i32, i32, i32, i32, i32, i32, ptr, ptr, i64, i64 }

; Function Attrs: nounwind uwtable
define hidden void @BIO_clear_retry_flags(ptr noundef %0) #0 {
  %2 = alloca ptr, align 8
  store ptr %0, ptr %2, align 8, !tbaa !11
  %3 = load ptr, ptr %2, align 8, !tbaa !11
  %4 = getelementptr inbounds nuw %struct.bio_st, ptr %3, i32 0, i32 5
  %5 = load i32, ptr %4, align 8, !tbaa !35
  %6 = and i32 %5, -16
  store i32 %6, ptr %4, align 8, !tbaa !35
  %7 = load ptr, ptr %2, align 8, !tbaa !11
  %8 = getelementptr inbounds nuw %struct.bio_st, ptr %7, i32 0, i32 6
  store i32 0, ptr %8, align 4, !tbaa !36
  ret void
}