; Function Attrs: mustprogress nofree norecurse nosync nounwind willreturn memory(argmem: readwrite) uwtable
define hidden void @BIO_clear_retry_flags(ptr noundef captures(none) initializes((36, 40)) %0) local_unnamed_addr #5 {
  %2 = getelementptr inbounds nuw i8, ptr %0, i64 32
  %3 = load i32, ptr %2, align 8, !tbaa !31
  %4 = and i32 %3, -16
  store i32 %4, ptr %2, align 8, !tbaa !31
  %5 = getelementptr inbounds nuw i8, ptr %0, i64 36
  store i32 0, ptr %5, align 4, !tbaa !32
  ret void
}